target datalayout = "e-m:e-p270:32:32-p271:32:32-p272:64:64-i64:64-i128:128-f80:128-n8:16:32:64-S128"
target triple = "x86_64-pc-linux-gnu"

%struct.H5O_linfo_t = type { i8, i8, i64, i64, i64, i64, i64 }
%struct.H5G_bt2_ud_common_t = type { ptr, ptr, ptr, i32, i64, ptr, ptr }

@.str = private unnamed_addr constant [102 x i8] c"generated/home/dtcxzyw/WorkSpace/Projects/compilers/llvm-opt-benchmark/bench/hdf5/hdf5/src/H5Gdense.c\00", align 1
@H5E_SYM_g = external global i64, align 8
@H5E_CLOSEERROR_g = external global i64, align 8
@.str.8 = private unnamed_addr constant [25 x i8] c"can't close fractal heap\00", align 1
@.str.9 = private unnamed_addr constant [37 x i8] c"can't close v2 B-tree for name index\00", align 1
@H5E_CANTOPENOBJ_g = external global i64, align 8
@.str.15 = private unnamed_addr constant [28 x i8] c"unable to open fractal heap\00", align 1
@H5E_CANTINSERT_g = external global i64, align 8
@.str.17 = private unnamed_addr constant [40 x i8] c"unable to open v2 B-tree for name index\00", align 1
@__func__.H5G__dense_lookup = private unnamed_addr constant [18 x i8] c"H5G__dense_lookup\00", align 1
@.str.21 = private unnamed_addr constant [36 x i8] c"unable to locate link in name index\00", align 1

; Function Attrs: nounwind uwtable
define i32 @H5G__dense_lookup(ptr noundef %0, ptr noundef %1, ptr noundef %2, ptr noundef %3, ptr noundef %4) #0 {
  %6 = alloca ptr, align 8
  %7 = alloca ptr, align 8
  %8 = alloca ptr, align 8
  %9 = alloca ptr, align 8
  %10 = alloca ptr, align 8
  %11 = alloca %struct.H5G_bt2_ud_common_t, align 8
  %12 = alloca ptr, align 8
  %13 = alloca ptr, align 8
  %14 = alloca i32, align 4
  %15 = alloca i8, align 1
  store ptr %0, ptr %6, align 8
  store ptr %1, ptr %7, align 8
  store ptr %2, ptr %8, align 8
  store ptr %3, ptr %9, align 8
  store ptr %4, ptr %10, align 8
  store ptr null, ptr %12, align 8
  store ptr null, ptr %13, align 8
  store i32 0, ptr %14, align 4
  store i8 0, ptr %15, align 1
  %16 = load ptr, ptr %6, align 8
  %17 = load ptr, ptr %7, align 8
  %18 = getelementptr inbounds %struct.H5O_linfo_t, ptr %17, i32 0, i32 5
  %19 = load i64, ptr %18, align 8
  %20 = call ptr @H5HF_open(ptr noundef %16, i64 noundef %19)
  store ptr %20, ptr %12, align 8
  %21 = icmp eq ptr null, %20
  br i1 %21, label %22, label %37

22:                                               ; preds = %5
  br label %23

23:                                               ; preds = %22
  br label %24

24:                                               ; preds = %23
  br label %25

25:                                               ; preds = %24
  %26 = load i64, ptr @H5E_SYM_g, align 8
  %27 = load i64, ptr @H5E_CANTOPENOBJ_g, align 8
  %28 = call i32 (ptr, ptr, i32, i64, i64, ptr, ...) @H5E_printf_stack(ptr noundef @.str, ptr noundef @__func__.H5G__dense_lookup, i32 noundef 495, i64 noundef %26, i64 noundef %27, ptr noundef @.str.15)
  br label %29

29:                                               ; preds = %25
  store i8 1, ptr %15, align 1
  %30 = load i8, ptr %15, align 1
  %31 = trunc i8 %30 to i1
  %32 = zext i1 %31 to i8
  store i8 %32, ptr %15, align 1
  br label %33

33:                                               ; preds = %29
  br label %34

34:                                               ; preds = %33
  store i32 -1, ptr %14, align 4
  br label %94

35:                                               ; No predecessors!
  br label %36

36:                                               ; preds = %35
  br label %37

37:                                               ; preds = %36, %5
  %38 = load ptr, ptr %6, align 8
  %39 = load ptr, ptr %7, align 8
  %40 = getelementptr inbounds %struct.H5O_linfo_t, ptr %39, i32 0, i32 6
  %41 = load i64, ptr %40, align 8
  %42 = call ptr @H5B2_open(ptr noundef %38, i64 noundef %41, ptr noundef null)
  store ptr %42, ptr %13, align 8
  %43 = icmp eq ptr null, %42
  br i1 %43, label %44, label %59

44:                                               ; preds = %37
  br label %45

45:                                               ; preds = %44
  br label %46

46:                                               ; preds = %45
  br label %47

47:                                               ; preds = %46
  %48 = load i64, ptr @H5E_SYM_g, align 8
  %49 = load i64, ptr @H5E_CANTOPENOBJ_g, align 8
  %50 = call i32 (ptr, ptr, i32, i64, i64, ptr, ...) @H5E_printf_stack(ptr noundef @.str, ptr noundef @__func__.H5G__dense_lookup, i32 noundef 499, i64 noundef %48, i64 noundef %49, ptr noundef @.str.17)
  br label %51

51:                                               ; preds = %47
  store i8 1, ptr %15, align 1
  %52 = load i8, ptr %15, align 1
  %53 = trunc i8 %52 to i1
  %54 = zext i1 %53 to i8
  store i8 %54, ptr %15, align 1
  br label %55

55:                                               ; preds = %51
  br label %56

56:                                               ; preds = %55
  store i32 -1, ptr %14, align 4
  br label %94

57:                                               ; No predecessors!
  br label %58

58:                                               ; preds = %57
  br label %59

59:                                               ; preds = %58, %37
  %60 = load ptr, ptr %6, align 8
  %61 = getelementptr inbounds %struct.H5G_bt2_ud_common_t, ptr %11, i32 0, i32 0
  store ptr %60, ptr %61, align 8
  %62 = load ptr, ptr %12, align 8
  %63 = getelementptr inbounds %struct.H5G_bt2_ud_common_t, ptr %11, i32 0, i32 1
  store ptr %62, ptr %63, align 8
  %64 = load ptr, ptr %8, align 8
  %65 = getelementptr inbounds %struct.H5G_bt2_ud_common_t, ptr %11, i32 0, i32 2
  store ptr %64, ptr %65, align 8
  %66 = load ptr, ptr %8, align 8
  %67 = load ptr, ptr %8, align 8
  %68 = call i64 @strlen(ptr noundef %67) #7
  %69 = call i32 @H5_checksum_lookup3(ptr noundef %66, i64 noundef %68, i32 noundef 0)
  %70 = getelementptr inbounds %struct.H5G_bt2_ud_common_t, ptr %11, i32 0, i32 3
  store i32 %69, ptr %70, align 8
  %71 = getelementptr inbounds %struct.H5G_bt2_ud_common_t, ptr %11, i32 0, i32 5
  store ptr @H5G__dense_lookup_cb, ptr %71, align 8
  %72 = load ptr, ptr %10, align 8
  %73 = getelementptr inbounds %struct.H5G_bt2_ud_common_t, ptr %11, i32 0, i32 6
  store ptr %72, ptr %73, align 8
  %74 = load ptr, ptr %13, align 8
  %75 = load ptr, ptr %9, align 8
  %76 = call i32 @H5B2_find(ptr noundef %74, ptr noundef %11, ptr noundef %75, ptr noundef null, ptr noundef null)
  %77 = icmp slt i32 %76, 0
  br i1 %77, label %78, label %93

78:                                               ; preds = %59
  br label %79

79:                                               ; preds = %78
  br label %80

80:                                               ; preds = %79
  br label %81

81:                                               ; preds = %80
  %82 = load i64, ptr @H5E_SYM_g, align 8
  %83 = load i64, ptr @H5E_CANTINSERT_g, align 8
  %84 = call i32 (ptr, ptr, i32, i64, i64, ptr, ...) @H5E_printf_stack(ptr noundef @.str, ptr noundef @__func__.H5G__dense_lookup, i32 noundef 511, i64 noundef %82, i64 noundef %83, ptr noundef @.str.21)
  br label %85

85:                                               ; preds = %81
  store i8 1, ptr %15, align 1
  %86 = load i8, ptr %15, align 1
  %87 = trunc i8 %86 to i1
  %88 = zext i1 %87 to i8
  store i8 %88, ptr %15, align 1
  br label %89

89:                                               ; preds = %85
  br label %90

90:                                               ; preds = %89
  store i32 -1, ptr %14, align 4
  br label %94

91:                                               ; No predecessors!
  br label %92

92:                                               ; preds = %91
  br label %93

93:                                               ; preds = %92, %59
  br label %94

94:                                               ; preds = %93, %90, %56, %34
  %95 = load ptr, ptr %12, align 8
  %96 = icmp ne ptr %95, null
  br i1 %96, label %97, label %114

97:                                               ; preds = %94
  %98 = load ptr, ptr %12, align 8
  %99 = call i32 @H5HF_close(ptr noundef %98)
  %100 = icmp slt i32 %99, 0
  br i1 %100, label %101, label %114

101:                                              ; preds = %97
  br label %102

102:                                              ; preds = %101
  br label %103

103:                                              ; preds = %102
  br label %104

104:                                              ; preds = %103
  %105 = load i64, ptr @H5E_SYM_g, align 8
  %106 = load i64, ptr @H5E_CLOSEERROR_g, align 8
  %107 = call i32 (ptr, ptr, i32, i64, i64, ptr, ...) @H5E_printf_stack(ptr noundef @.str, ptr noundef @__func__.H5G__dense_lookup, i32 noundef 516, i64 noundef %105, i64 noundef %106, ptr noundef @.str.8)
  br label %108

108:                                              ; preds = %104
  store i8 1, ptr %15, align 1
  %109 = load i8, ptr %15, align 1
  %110 = trunc i8 %109 to i1
  %111 = zext i1 %110 to i8
  store i8 %111, ptr %15, align 1
  br label %112

112:                                              ; preds = %108
  store i32 -1, ptr %14, align 4
  br label %113

113:                                              ; preds = %112
  br label %114

114:                                              ; preds = %113, %97, %94
  %115 = load ptr, ptr %13, align 8
  %116 = icmp ne ptr %115, null
  br i1 %116, label %117, label %134

117:                                              ; preds = %114
  %118 = load ptr, ptr %13, align 8
  %119 = call i32 @H5B2_close(ptr noundef %118)
  %120 = icmp slt i32 %119, 0
  br i1 %120, label %121, label %134

121:                                              ; preds = %117
  br label %122

122:                                              ; preds = %121
  br label %123

123:                                              ; preds = %122
  br label %124

124:                                              ; preds = %123
  %125 = load i64, ptr @H5E_SYM_g, align 8
  %126 = load i64, ptr @H5E_CLOSEERROR_g, align 8
  %127 = call i32 (ptr, ptr, i32, i64, i64, ptr, ...) @H5E_printf_stack(ptr noundef @.str, ptr noundef @__func__.H5G__dense_lookup, i32 noundef 518, i64 noundef %125, i64 noundef %126, ptr noundef @.str.9)
  br label %128

128:                                              ; preds = %124
  store i8 1, ptr %15, align 1
  %129 = load i8, ptr %15, align 1
  %130 = trunc i8 %129 to i1
  %131 = zext i1 %130 to i8
  store i8 %131, ptr %15, align 1
  br label %132

132:                                              ; preds = %128
  store i32 -1, ptr %14, align 4
  br label %133

133:                                              ; preds = %132
  br label %134

134:                                              ; preds = %133, %117, %114
  %135 = load i32, ptr %14, align 4
  ret i32 %135
}