; Function Attrs: nounwind uwtable
define range(i32 -1, 1) i32 @H5G__dense_lookup(ptr noundef %0, ptr nocapture noundef readonly %1, ptr noundef %2, ptr noundef %3, ptr noundef %4) local_unnamed_addr #0 {
  %6 = alloca %struct.H5G_bt2_ud_common_t, align 8
  %7 = getelementptr inbounds i8, ptr %1, i64 32
  %8 = load i64, ptr %7, align 8
  %9 = tail call ptr @H5HF_open(ptr noundef %0, i64 noundef %8) #8
  %10 = icmp eq ptr %9, null
  br i1 %10, label %.thread32, label %11

11:                                               ; preds = %5
  %12 = getelementptr inbounds i8, ptr %1, i64 40
  %13 = load i64, ptr %12, align 8
  %14 = tail call ptr @H5B2_open(ptr noundef %0, i64 noundef %13, ptr noundef null) #8
  %15 = icmp eq ptr %14, null
  br i1 %15, label %16, label %20

16:                                               ; preds = %11
  %17 = load i64, ptr @H5E_SYM_g, align 8
  %18 = load i64, ptr @H5E_CANTOPENOBJ_g, align 8
  %19 = tail call i32 (ptr, ptr, i32, i64, i64, ptr, ...) @H5E_printf_stack(ptr noundef nonnull @.str, ptr noundef nonnull @__func__.H5G__dense_lookup, i32 noundef 499, i64 noundef %17, i64 noundef %18, ptr noundef nonnull @.str.17) #8
  br label %37

20:                                               ; preds = %11
  store ptr %0, ptr %6, align 8
  %21 = getelementptr inbounds i8, ptr %6, i64 8
  store ptr %9, ptr %21, align 8
  %22 = getelementptr inbounds i8, ptr %6, i64 16
  store ptr %2, ptr %22, align 8
  %23 = tail call i64 @strlen(ptr noundef nonnull dereferenceable(1) %2) #9
  %24 = tail call i32 @H5_checksum_lookup3(ptr noundef %2, i64 noundef %23, i32 noundef 0) #8
  %25 = getelementptr inbounds i8, ptr %6, i64 24
  store i32 %24, ptr %25, align 8
  %26 = getelementptr inbounds i8, ptr %6, i64 40
  store ptr @H5G__dense_lookup_cb, ptr %26, align 8
  %27 = getelementptr inbounds i8, ptr %6, i64 48
  store ptr %4, ptr %27, align 8
  %28 = call i32 @H5B2_find(ptr noundef nonnull %14, ptr noundef nonnull %6, ptr noundef %3, ptr noundef null, ptr noundef null) #8
  %29 = icmp slt i32 %28, 0
  br i1 %29, label %30, label %37

30:                                               ; preds = %20
  %31 = load i64, ptr @H5E_SYM_g, align 8
  %32 = load i64, ptr @H5E_CANTINSERT_g, align 8
  %33 = call i32 (ptr, ptr, i32, i64, i64, ptr, ...) @H5E_printf_stack(ptr noundef nonnull @.str, ptr noundef nonnull @__func__.H5G__dense_lookup, i32 noundef 511, i64 noundef %31, i64 noundef %32, ptr noundef nonnull @.str.21) #8
  br label %37

.thread32:                                        ; preds = %5
  %34 = load i64, ptr @H5E_SYM_g, align 8
  %35 = load i64, ptr @H5E_CANTOPENOBJ_g, align 8
  %36 = tail call i32 (ptr, ptr, i32, i64, i64, ptr, ...) @H5E_printf_stack(ptr noundef nonnull @.str, ptr noundef nonnull @__func__.H5G__dense_lookup, i32 noundef 495, i64 noundef %34, i64 noundef %35, ptr noundef nonnull @.str.15) #8
  br label %52

37:                                               ; preds = %20, %30, %16
  %.0.ph = phi i32 [ 0, %20 ], [ -1, %30 ], [ -1, %16 ]
  %38 = call i32 @H5HF_close(ptr noundef nonnull %9) #8
  %39 = icmp slt i32 %38, 0
  br i1 %39, label %40, label %44

40:                                               ; preds = %37
  %41 = load i64, ptr @H5E_SYM_g, align 8
  %42 = load i64, ptr @H5E_CLOSEERROR_g, align 8
  %43 = call i32 (ptr, ptr, i32, i64, i64, ptr, ...) @H5E_printf_stack(ptr noundef nonnull @.str, ptr noundef nonnull @__func__.H5G__dense_lookup, i32 noundef 516, i64 noundef %41, i64 noundef %42, ptr noundef nonnull @.str.8) #8
  br label %44

44:                                               ; preds = %40, %37
  %.1 = phi i32 [ -1, %40 ], [ %.0.ph, %37 ]
  br i1 %15, label %52, label %45

45:                                               ; preds = %44
  %46 = call i32 @H5B2_close(ptr noundef nonnull %14) #8
  %47 = icmp slt i32 %46, 0
  br i1 %47, label %48, label %52

48:                                               ; preds = %45
  %49 = load i64, ptr @H5E_SYM_g, align 8
  %50 = load i64, ptr @H5E_CLOSEERROR_g, align 8
  %51 = call i32 (ptr, ptr, i32, i64, i64, ptr, ...) @H5E_printf_stack(ptr noundef nonnull @.str, ptr noundef nonnull @__func__.H5G__dense_lookup, i32 noundef 518, i64 noundef %49, i64 noundef %50, ptr noundef nonnull @.str.9) #8
  br label %52

52:                                               ; preds = %.thread32, %48, %45, %44
  %.2 = phi i32 [ -1, %48 ], [ %.1, %45 ], [ %.1, %44 ], [ -1, %.thread32 ]
  ret i32 %.2
}